; ModuleID = 'bench/openssl/original/getenv.ll'
source_filename = "bench/openssl/original/getenv.ll"
target datalayout = "e-m:e-p270:32:32-p271:32:32-p272:64:64-i64:64-i128:128-f80:128-n8:16:32:64-S128"
target triple = "x86_64-pc-linux-gnu"

; Function Attrs: nounwind uwtable
define ptr @ossl_safe_getenv(ptr noundef %0) local_unnamed_addr #0 {
  %2 = tail call ptr @secure_getenv(ptr noundef %0) #2
  ret ptr %2
}

; Function Attrs: nounwind
declare ptr @secure_getenv(ptr noundef) local_unnamed_addr #1


!llvm.module.flags = !{!0, !1, !2}

!0 = !{i32 1, !"wchar_size", i32 4}
!1 = !{i32 8, !"PIC Level", i32 2}
!2 = !{i32 7, !"uwtable", i32 2}
